target datalayout = "e-m:e-p270:32:32-p271:32:32-p272:64:64-i64:64-i128:128-f80:128-n8:16:32:64-S128"
target triple = "x86_64-pc-linux-gnu"

%"class.std::__cxx11::basic_string" = type { %"struct.std::__cxx11::basic_string<char>::_Alloc_hider", i64, %union.anon }
%"struct.std::__cxx11::basic_string<char>::_Alloc_hider" = type { ptr }
%union.anon = type { i64, [8 x i8] }
%"class.OpenColorIO_v2_5dev::GpuShaderText" = type <{ i32, [4 x i8], %"class.std::__cxx11::basic_ostringstream", %"class.std::__cxx11::basic_ostringstream", i32, [4 x i8] }>
%"class.std::__cxx11::basic_ostringstream" = type { %"class.std::basic_ostream.base", %"class.std::__cxx11::basic_stringbuf", %"class.std::basic_ios" }
%"class.std::basic_ostream.base" = type { ptr }
%"class.std::__cxx11::basic_stringbuf" = type { %"class.std::basic_streambuf", i32, %"class.std::__cxx11::basic_string" }
%"class.std::basic_streambuf" = type { ptr, ptr, ptr, ptr, ptr, ptr, ptr, %"class.std::locale" }
%"class.std::locale" = type { ptr }
%"class.std::basic_ios" = type { %"class.std::ios_base", ptr, i8, i8, ptr, ptr, ptr, ptr }
%"class.std::ios_base" = type { ptr, i64, i64, i32, i32, i32, ptr, %"struct.std::ios_base::_Words", [8 x %"struct.std::ios_base::_Words"], i32, ptr, %"class.std::locale" }
%"struct.std::ios_base::_Words" = type { ptr, i64 }

; Function Attrs: mustprogress nounwind uwtable
define linkonce_odr hidden noundef i64 @_ZNSt8ios_base9precisionEl(ptr noundef nonnull align 8 dereferenceable(216) %0, i64 noundef %1) #4 comdat align 2 {
  %3 = alloca ptr, align 8
  %4 = alloca i64, align 8
  %5 = alloca i64, align 8
  store ptr %0, ptr %3, align 8, !tbaa !43
  store i64 %1, ptr %4, align 8, !tbaa !45
  %6 = load ptr, ptr %3, align 8
  call void @llvm.lifetime.start.p0(i64 8, ptr %5) #3
  %7 = getelementptr inbounds nuw %"class.std::ios_base", ptr %6, i32 0, i32 1
  %8 = load i64, ptr %7, align 8, !tbaa !46
  store i64 %8, ptr %5, align 8, !tbaa !45
  %9 = load i64, ptr %4, align 8, !tbaa !45
  %10 = getelementptr inbounds nuw %"class.std::ios_base", ptr %6, i32 0, i32 1
  store i64 %9, ptr %10, align 8, !tbaa !46
  %11 = load i64, ptr %5, align 8, !tbaa !45
  call void @llvm.lifetime.end.p0(i64 8, ptr %5) #3
  ret i64 %11
}

; Function Attrs: mustprogress uwtable
define hidden void @_ZN19OpenColorIO_v2_5dev13GpuShaderTextC2ENS_11GpuLanguageE(ptr noundef nonnull align 8 dereferenceable(764) %0, i32 noundef %1) unnamed_addr #5 align 2 personality ptr @__gxx_personality_v0 {
  %3 = alloca ptr, align 8
  %4 = alloca i32, align 4
  %5 = alloca ptr, align 8
  %6 = alloca i32, align 4
  store ptr %0, ptr %3, align 8, !tbaa !8
  store i32 %1, ptr %4, align 4, !tbaa !37
  %7 = load ptr, ptr %3, align 8
  %8 = getelementptr inbounds nuw %"class.OpenColorIO_v2_5dev::GpuShaderText", ptr %7, i32 0, i32 0
  %9 = load i32, ptr %4, align 4, !tbaa !37
  store i32 %9, ptr %8, align 8, !tbaa !34
  %10 = getelementptr inbounds nuw %"class.OpenColorIO_v2_5dev::GpuShaderText", ptr %7, i32 0, i32 2
  call void @_ZNSt7__cxx1119basic_ostringstreamIcSt11char_traitsIcESaIcEEC1Ev(ptr noundef nonnull align 8 dereferenceable(112) %10)
  %11 = getelementptr inbounds nuw %"class.OpenColorIO_v2_5dev::GpuShaderText", ptr %7, i32 0, i32 3
  invoke void @_ZNSt7__cxx1119basic_ostringstreamIcSt11char_traitsIcESaIcEEC1Ev(ptr noundef nonnull align 8 dereferenceable(112) %11)
          to label %12 unwind label %28

12:                                               ; preds = %2
  %13 = getelementptr inbounds nuw %"class.OpenColorIO_v2_5dev::GpuShaderText", ptr %7, i32 0, i32 4
  store i32 0, ptr %13, align 8, !tbaa !12
  %14 = getelementptr inbounds nuw %"class.OpenColorIO_v2_5dev::GpuShaderText", ptr %7, i32 0, i32 2
  %15 = load ptr, ptr %14, align 8, !tbaa !27
  %16 = getelementptr i8, ptr %15, i64 -24
  %17 = load i64, ptr %16, align 8
  %18 = getelementptr inbounds i8, ptr %14, i64 %17
  %19 = invoke noundef i64 @_ZNSt8ios_base9precisionEl(ptr noundef nonnull align 8 dereferenceable(216) %18, i64 noundef 16)
          to label %20 unwind label %32

20:                                               ; preds = %12
  %21 = getelementptr inbounds nuw %"class.OpenColorIO_v2_5dev::GpuShaderText", ptr %7, i32 0, i32 3
  %22 = load ptr, ptr %21, align 8, !tbaa !27
  %23 = getelementptr i8, ptr %22, i64 -24
  %24 = load i64, ptr %23, align 8
  %25 = getelementptr inbounds i8, ptr %21, i64 %24
  %26 = invoke noundef i64 @_ZNSt8ios_base9precisionEl(ptr noundef nonnull align 8 dereferenceable(216) %25, i64 noundef 16)
          to label %27 unwind label %32

27:                                               ; preds = %20
  ret void

28:                                               ; preds = %2
  %29 = landingpad { ptr, i32 }
          cleanup
  %30 = extractvalue { ptr, i32 } %29, 0
  store ptr %30, ptr %5, align 8
  %31 = extractvalue { ptr, i32 } %29, 1
  store i32 %31, ptr %6, align 4
  br label %36

32:                                               ; preds = %20, %12
  %33 = landingpad { ptr, i32 }
          cleanup
  %34 = extractvalue { ptr, i32 } %33, 0
  store ptr %34, ptr %5, align 8
  %35 = extractvalue { ptr, i32 } %33, 1
  store i32 %35, ptr %6, align 4
  call void @_ZNSt7__cxx1119basic_ostringstreamIcSt11char_traitsIcESaIcEED1Ev(ptr noundef nonnull align 8 dereferenceable(112) %11) #3
  br label %36

36:                                               ; preds = %32, %28
  call void @_ZNSt7__cxx1119basic_ostringstreamIcSt11char_traitsIcESaIcEED1Ev(ptr noundef nonnull align 8 dereferenceable(112) %10) #3
  br label %37

37:                                               ; preds = %36
  %38 = load ptr, ptr %5, align 8
  %39 = load i32, ptr %6, align 4
  %40 = insertvalue { ptr, i32 } poison, ptr %38, 0
  %41 = insertvalue { ptr, i32 } %40, i32 %39, 1
  resume { ptr, i32 } %41
}