; Function Attrs: mustprogress uwtable
define hidden void @_ZN19OpenColorIO_v2_5dev13GpuShaderTextC2ENS_11GpuLanguageE(ptr noundef nonnull align 8 dereferenceable(764) initializes((0, 4)) %0, i32 noundef %1) unnamed_addr #5 align 2 personality ptr @__gxx_personality_v0 {
  store i32 %1, ptr %0, align 8, !tbaa !60
  %3 = getelementptr inbounds nuw i8, ptr %0, i64 8
  tail call void @_ZNSt7__cxx1119basic_ostringstreamIcSt11char_traitsIcESaIcEEC1Ev(ptr noundef nonnull align 8 dereferenceable(112) %3)
  %4 = getelementptr inbounds nuw i8, ptr %0, i64 384
  invoke void @_ZNSt7__cxx1119basic_ostringstreamIcSt11char_traitsIcESaIcEEC1Ev(ptr noundef nonnull align 8 dereferenceable(112) %4)
          to label %5 unwind label %17

5:                                                ; preds = %2
  %6 = getelementptr inbounds nuw i8, ptr %0, i64 760
  store i32 0, ptr %6, align 8, !tbaa !9
  %7 = load ptr, ptr %3, align 8, !tbaa !37
  %8 = getelementptr i8, ptr %7, i64 -24
  %9 = load i64, ptr %8, align 8
  %10 = getelementptr inbounds i8, ptr %3, i64 %9
  %11 = getelementptr inbounds nuw i8, ptr %10, i64 8
  store i64 16, ptr %11, align 8, !tbaa !61
  %12 = load ptr, ptr %4, align 8, !tbaa !37
  %13 = getelementptr i8, ptr %12, i64 -24
  %14 = load i64, ptr %13, align 8
  %15 = getelementptr inbounds i8, ptr %4, i64 %14
  %16 = getelementptr inbounds nuw i8, ptr %15, i64 8
  store i64 16, ptr %16, align 8, !tbaa !61
  ret void

17:                                               ; preds = %2
  %18 = landingpad { ptr, i32 }
          cleanup
  tail call void @_ZNSt7__cxx1119basic_ostringstreamIcSt11char_traitsIcESaIcEED1Ev(ptr noundef nonnull align 8 dereferenceable(112) %3) #22
  resume { ptr, i32 } %18
}